; Function Attrs: mustprogress uwtable
define dso_local void @_ZN18DFSRndNumGenerator19initialize_sequenceERKSt6vectorIiSaIiEE(ptr nocapture noundef nonnull readonly align 8 dereferenceable(96) %0, ptr nocapture noundef nonnull readonly align 8 dereferenceable(24) %1) local_unnamed_addr #6 align 2 {
  %3 = getelementptr inbounds i8, ptr %1, i64 8
  %4 = load ptr, ptr %3, align 8
  %5 = load ptr, ptr %1, align 8
  %.not = icmp eq ptr %4, %5
  br i1 %.not, label %._crit_edge, label %.lr.ph

.lr.ph:                                           ; preds = %2
  %6 = getelementptr inbounds i8, ptr %0, i64 56
  br label %7

7:                                                ; preds = %.lr.ph, %7
  %8 = phi ptr [ %5, %.lr.ph ], [ %18, %7 ]
  %.06 = phi i64 [ 0, %.lr.ph ], [ %16, %7 ]
  %9 = load ptr, ptr %6, align 8
  %10 = getelementptr inbounds i32, ptr %8, i64 %.06
  %11 = load i32, ptr %10, align 4
  %12 = trunc i64 %.06 to i32
  %13 = load ptr, ptr %9, align 8
  %14 = getelementptr inbounds i8, ptr %13, i64 32
  %15 = load ptr, ptr %14, align 8
  tail call void %15(ptr noundef nonnull align 8 dereferenceable(8) %9, i32 noundef %11, i32 noundef 0, i32 noundef %12)
  %16 = add nuw i64 %.06, 1
  %17 = load ptr, ptr %3, align 8
  %18 = load ptr, ptr %1, align 8
  %19 = ptrtoint ptr %17 to i64
  %20 = ptrtoint ptr %18 to i64
  %21 = sub i64 %19, %20
  %22 = ashr exact i64 %21, 2
  %23 = icmp ult i64 %16, %22
  br i1 %23, label %7, label %._crit_edge, !llvm.loop !8

._crit_edge:                                      ; preds = %7, %2
  ret void
}